; Function Attrs: mustprogress nofree norecurse nosync nounwind willreturn memory(argmem: readwrite) uwtable
define internal void @newreno_reset(ptr noundef captures(none) initializes((32, 44), (56, 100), (104, 116)) %0) #1 {
  %2 = getelementptr inbounds nuw i8, ptr %0, i64 32
  store i32 1, ptr %2, align 8, !tbaa !28
  %3 = getelementptr inbounds nuw i8, ptr %0, i64 36
  store i32 2, ptr %3, align 4, !tbaa !29
  %4 = getelementptr inbounds nuw i8, ptr %0, i64 40
  store i32 3, ptr %4, align 8, !tbaa !30
  %5 = getelementptr inbounds nuw i8, ptr %0, i64 16
  %6 = load i64, ptr %5, align 8, !tbaa !15
  %7 = getelementptr inbounds nuw i8, ptr %0, i64 64
  store i64 %6, ptr %7, align 8, !tbaa !17
  %8 = getelementptr inbounds nuw i8, ptr %0, i64 56
  store i64 0, ptr %8, align 8, !tbaa !23
  %9 = getelementptr inbounds nuw i8, ptr %0, i64 80
  store i64 0, ptr %9, align 8, !tbaa !31
  %10 = getelementptr inbounds nuw i8, ptr %0, i64 72
  store i64 -1, ptr %10, align 8, !tbaa !26
  %11 = getelementptr inbounds nuw i8, ptr %0, i64 88
  store i64 0, ptr %11, align 8, !tbaa !19
  %12 = getelementptr inbounds nuw i8, ptr %0, i64 96
  store i32 0, ptr %12, align 8, !tbaa !32
  %13 = getelementptr inbounds nuw i8, ptr %0, i64 104
  store i64 0, ptr %13, align 8, !tbaa !19
  %14 = getelementptr inbounds nuw i8, ptr %0, i64 112
  store i32 0, ptr %14, align 8, !tbaa !25
  ret void
}